(lp1
F12824
aF8616
aF6344
aF7770
aF14568
aF4082
aF6671
aF374
aF481
aF14331
aF793
aF24514
aF17471
aF17110
aF301
aF12728
aF9945
aF3034
aF6415
aF623
aF4777
aF2193
aF13188
aF9735
aF1895
aF9175
aF17114
aF21720
aF222
aF8785
aF7092
aF11968
aF18056
aF18032
aF2739
aF14585
aF18932
aF2433
aF1166
aF713
aF1180
aF7103
aF12576
aF1625
aF1381
aF6576
aF11580
aF11802
aF2716
aF1100
aF2109
aF11610
aF19176
aF11487
aF3678
aF1352
aF17909
aF11803
aF929
aF15219
aF12004
aF15741
aF3220
aF19011
aF6207
aF16428
aF2959
aF3031
aF834
aF10506
aF3343
aF22579
aF17138
aF7800
aF3199
aF8413
aF16120
aF2940
aF5750
aF12759
aF1332
aF17847
aF335
aF23376
aF5272
aF595
aF7169
aF3180
aF13745
aF23513
aF6101
aF2102
aF3679
aF4350
aF6574
aF6265
aF14760
aF4948
aF8590
aF4094
aF16305
aF6679
aF15405
aF1486
aF18347
aF2528
aF1979
aF836
aF2533
aF4792
aF8304
aF5713
aF1540
aF5581
aF5720
aF537
aF20935
aF1463
aF18236
aF5830
aF22642
aF6002
aF11745
aF761
aF7645
aF13487
aF1960
aF14820
aF7257
aF1291
aF6812
aF7144
aF2643
aF10373
aF8407
aF4987
aF9916
aF3596
aF21242
aF1286
aF15298
aF1113
aF21030
aF22157
aF1194
aF7286
aF3057
aF10415
aF5431
aF16486
aF12276
aF16228
aF254
aF14420
aF6200
aF10407
aF14202
aF787
aF20359
aF4685
aF21228
aF7995
aF4917
aF14171
aF11288
aF22315
aF15098
aF3043
aF12578
aF5309
aF13781
aF297
aF3530
aF13235
aF17454
aF1540
aF2270
aF20323
aF6869
aF21587
aF13401
aF20997
aF333
aF5801
aF6096
aF5516
aF778
aF3559
aF8947
aF3452
aF22513
aF11869
aF9138
aF14945
aF3760
aF3089
aF18868
aF5361
aF502
aF17327
aF15689
aF1723
aF1352
aF5009
aF13949
aF852
aF2030
aF15635
aF19771
aF2182
aF4159
aF21238
aF9977
aF842
aF3097
aF1227
aF282
aF369
aF9529
aF6121
aF1985
aF1285
aF15351
aF6835
aF14857
aF11185
aF16434
aF4604
aF16297
aF3628
aF18343
aF11082
aF13776
aF5013
aF2387
aF5671
aF12603
aF8620
aF7886
aF18146
aF1369
aF12091
aF3881
aF10058
aF14553
aF6447
aF2803
aF725
aF13586
aF1792
aF1830
aF433
aF3808
aF673
aF17291
aF1586
aF3797
aF7680
aF9377
aF9414
aF6243
aF4185
aF5980
aF5227
aF6991
aF6924
aF20230
aF12882
aF3402
aF3393
aF13769
aF13263
aF5891
aF14386
aF1234
aF4175
aF6033
aF3891
aF20436
aF12059
aF15770
aF3466
aF1846
aF4157
aF14941
aF1880
aF14989
aF8690
aF1273
aF7766
aF5748
aF3696
aF5299
aF7298
aF5576
aF214
aF625
aF2468
aF23904
aF2700
aF1317
aF17921
aF2803
aF1029
aF2457
aF1071
aF6189
aF21654
aF2810
aF8697
aF1769
aF3578
aF406
aF7619
aF4551
aF967
aF12946
aF15737
aF13918
aF5449
aF5786
aF8557
aF2627
aF1351
aF2689
aF3775
aF1980
aF7164
aF754
aF2589
aF18580
aF10079
aF1329
aF3553
aF16334
aF1778
aF1495
aF1381
aF16406
aF14363
aF9194
aF6267
aF7071
aF12585
aF9310
aF2471
aF9024
aF5955
aF19716
aF13415
aF5259
aF8316
aF1415
aF17813
aF19418
aF10085
aF6918
aF21202
aF13181
aF11522
aF497
aF1260
aF11780
aF1838
aF11025
aF20775
aF6215
aF509
aF1379
aF8182
aF7423
aF1137
aF5057
aF2962
aF19690
aF16559
aF8086
aF20754
aF9909
aF12678
aF15242
aF6098
aF3400
aF5947
aF21327
aF19080
aF466
aF4865
aF17178
aF2799
aF10642
aF2612
aF17610
aF19222
aF20653
aF3108
aF9720
aF6549
aF6646
aF18660
aF576
aF6745
aF1133
aF3557
aF9932
aF8631
aF16170
aF17382
aF13262
aF8200
aF1167
aF2790
aF1264
aF14406
aF7558
aF4706
aF7874
aF17419
aF19593
aF4576
aF15819
aF23701
aF7447
aF4541
aF21308
aF1656
aF6846
aF13712
aF19104
aF365
aF15757
aF10556
aF4919
aF12087
aF3815
aF1231
aF2881
aF8285
aF2471
aF2788
aF376
aF7624
aF3735
aF3225
aF6731
aF5114
aF462
aF3121
aF13115
aF8421
aF867
aF19402
aF2280
aF8762
aF7125
aF12016
aF10887
aF17842
aF18192
aF5052
aF18735
aF15516
aF13777
aF5675
aF2710
aF1452
aF8438
aF12112
aF3226
aF4401
aF11932
aF566
aF2570
aF12524
aF1901
aF9171
aF11912
aF986
aF5483
aF5742
aF1578
aF20547
aF568
aF10050
aF3888
aF7203
aF6725
aF2875
aF1959
aF11224
aF5596
aF22777
aF3906
aF4411
aF3531
aF644
aF21065
aF16336
aF20315
aF17539
aF9823
aF21151
aF3725
aF13428
aF22320
aF2350
aF10592
aF2923
aF9530
aF16608
aF1734
aF4730
aF2366
aF6992
aF1598
aF11209
aF4259
aF14448
aF1406
aF5945
aF398
aF8336
aF2782
aF15655
aF5400
aF1974
aF7696
aF2357
aF17055
aF2888
aF771
aF18302
aF637
aF15199
aF5619
aF5413
aF62
aF9713
aF4681
aF634
aF2237
aF5870
aF16070
aF11245
aF24581
aF15153
aF2006
aF10932
aF9217
aF14589
aF15868
aF2848
aF3270
aF14028
aF7211
aF3187
aF18016
aF1370
aF10000
aF10303
aF521
aF24153
aF16415
aF7523
aF2076
aF3071
aF9637
aF5080
aF6233
aF10905
aF10574
aF18502
aF657
aF14853
aF10045
aF2121
aF8329
aF3043
aF20987
aF3093
aF20546
aF3962
aF20143
aF5726
aF11133
aF2399
aF5828
aF9520
aF4310
aF9393
aF5659
aF2352
aF13757
aF4069
aF17330
aF977
aF8838
aF21319
aF4918
aF20088
aF9810
aF12286
aF21830
aF9580
aF2014
aF20043
aF11341
aF12787
aF8054
aF1748
aF10271
aF8660
aF11733
aF3757
aF6017
aF3437
aF19683
aF11455
aF8208
aF6140
aF3005
aF22195
aF6768
aF3910
aF4727
aF1478
aF4782
aF9461
aF9373
aF7448
aF19963
aF12250
aF13039
aF15858
aF221
aF13408
aF8747
aF6517
aF1587
aF4929
aF15939
aF6558
aF4356
aF5941
aF13872
aF3584
aF16410
aF20314
aF2705
aF496
aF8808
aF7274
aF5514
aF3949
aF599
aF1312
aF2578
aF22975
aF1694
aF2116
aF1788
aF21096
aF20846
aF3779
aF4254
aF8771
aF4278
aF4416
aF5085
aF16630
aF9923
aF6069
aF18418
aF6522
aF9444
aF125
aF4582
aF18780
aF13056
aF9412
aF1399
aF184
aF305
aF3289
aF5897
aF5589
aF14022
aF2106
aF8466
aF16910
aF5708
aF6167
aF6395
aF3343
aF10837
aF11388
aF12649
aF20116
aF5862
aF2126
aF20720
aF21583
aF8417
aF14323
aF712
aF13690
aF7656
aF2366
aF5718
aF7304
aF18584
aF2301
aF11440
aF10887
aF1689
aF17314
aF3957
aF6031
aF2966
aF10703
aF13977
aF6457
aF1312
aF1547
aF19074
aF11498
aF812
aF1840
aF8061
aF1153
aF5274
aF381
aF10123
aF18990
aF3399
aF21003
aF3232
aF10777
aF23226
aF6219
aF4030
aF12780
aF10243
aF4704
aF1205
aF394
aF18231
aF5824
aF1578
aF10142
aF3302
aF2132
aF2816
aF8804
aF4358
aF7404
aF7727
aF5085
aF21964
aF1609
aF4033
aF789
aF15361
aF17948
aF6269
aF1902
aF6834
aF7724
aF464
aF1198
aF1646
aF15904
aF6228
aF5552
aF9505
aF3209
aF680
aF3419
aF5328
aF9941
aF6858
aF4653
aF285
aF5108
aF12852
aF8018
aF882
aF6958
aF8994
aF2061
aF4170
aF2882
aF8762
aF8451
aF3814
aF4408
aF5672
aF1624
aF476
aF17208
aF7224
aF18525
aF3428
aF4987
aF3053
aF13373
aF16577
aF15274
aF21427
aF20791
aF8117
aF2142
aF3225
aF3460
aF3582
aF6659
aF5514
aF9256
aF17186
aF13525
aF2905
aF15844
aF396
aF478
aF11944
aF11998
aF10598
aF1358
aF4553
aF19012
aF7425
aF640
aF9013
aF6975
aF5046
aF5291
aF13124
aF9177
aF775
aF14732
aF8662
aF11939
aF9169
aF3720
aF18004
aF21864
aF593
aF385
aF14487
aF138
aF16427
aF3292
aF18081
aF9018
aF8911
aF12947
aF6801
aF14470
aF682
aF4578
aF6463
aF2322
aF898
aF760
aF21251
aF20745
aF2248
aF22395
aF6644
aF9228
aF19828
aF4632
aF17532
aF909
aF12970
aF5522
aF9816
aF14022
aF5728
aF18640
aF15470
aF22659
aF2843
aF1436
aF1153
aF7811
aF10100
aF554
aF3604
aF11068
aF4764
aF21854
aF21994
aF10655
aF17857
aF5650
aF2637
aF1269
aF4475
aF21372
aF15532
aF3407
aF17386
aF18468
aF12458
aF7831
aF2143
aF2823
aF4626
aF5318
aF8987
aF1595
aF4725
aF2633
aF19661
aF12705
aF12188
aF13617
aF18195
aF10559
aF19980
aF323
aF20275
aF776
aF2429
aF13480
aF2439
aF921
aF5836
aF7647
aF7237
aF5973
aF3581
aF14283
aF812
aF3120
aF5232
aF18730
aF13788
aF2503
aF1666
aF1037
aF6056
aF1539
aF19937
aF16803
aF17892
aF15871
aF12475
aF1672
aF4078
aF8518
aF6319
aF15105
aF13026
aF1770
aF6812
aF782
aF8798
aF19190
aF16042
aF3466
aF2099
aF1500
aF11028
aF3448
aF349
aF4594
aF483
aF13972
aF11582
aF20177
aF10362
aF1640
aF7672
aF1547
aF3261
aF9094
aF6001
aF2401
aF1156
aF2258
aF2716
aF23117
aF900
aF19045
aF11135
aF5922
aF21429
aF3463
aF19472
aF3907
aF18802
aF645
aF6697
aF5841
aF578
aF13862
aF1900
aF507
a.